target datalayout = "e-m:e-p270:32:32-p271:32:32-p272:64:64-i64:64-i128:128-f80:128-n8:16:32:64-S128"
target triple = "x86_64-pc-linux-gnu"

%struct._timelib_tzinfo = type { ptr, %struct.anon, %struct.anon.0, ptr, ptr, ptr, ptr, ptr, i8, %struct._tlocinfo, ptr, ptr }
%struct.anon = type { i32, i32, i32, i32, i32, i32 }
%struct.anon.0 = type { i64, i64, i64, i64, i64, i64 }
%struct._tlocinfo = type { [3 x i8], double, double, ptr }
%struct._timelib_time = type { i64, i64, i64, i64, i64, i64, i64, i32, ptr, ptr, i32, %struct._timelib_rel_time, i64, i32, i32, i32, i32, i32, i32, i32, i32, i32 }
%struct._timelib_rel_time = type { i64, i64, i64, i64, i64, i64, i64, i32, i32, i32, i32, i64, %struct.anon.1, i32, i32 }
%struct.anon.1 = type { i32, i64 }

; Function Attrs: nounwind uwtable
define hidden i32 @timelib_same_timezone(ptr noundef %0, ptr noundef %1) #0 {
  %3 = alloca i32, align 4
  %4 = alloca ptr, align 8
  %5 = alloca ptr, align 8
  store ptr %0, ptr %4, align 8, !tbaa !65
  store ptr %1, ptr %5, align 8, !tbaa !65
  %6 = load ptr, ptr %4, align 8, !tbaa !65
  %7 = getelementptr inbounds nuw %struct._timelib_time, ptr %6, i32 0, i32 21
  %8 = load i32, ptr %7, align 8, !tbaa !106
  %9 = load ptr, ptr %5, align 8, !tbaa !65
  %10 = getelementptr inbounds nuw %struct._timelib_time, ptr %9, i32 0, i32 21
  %11 = load i32, ptr %10, align 8, !tbaa !106
  %12 = icmp ne i32 %8, %11
  br i1 %12, label %13, label %14

13:                                               ; preds = %2
  store i32 0, ptr %3, align 4
  br label %64

14:                                               ; preds = %2
  %15 = load ptr, ptr %4, align 8, !tbaa !65
  %16 = getelementptr inbounds nuw %struct._timelib_time, ptr %15, i32 0, i32 21
  %17 = load i32, ptr %16, align 8, !tbaa !106
  %18 = icmp eq i32 %17, 2
  br i1 %18, label %24, label %19

19:                                               ; preds = %14
  %20 = load ptr, ptr %4, align 8, !tbaa !65
  %21 = getelementptr inbounds nuw %struct._timelib_time, ptr %20, i32 0, i32 21
  %22 = load i32, ptr %21, align 8, !tbaa !106
  %23 = icmp eq i32 %22, 1
  br i1 %23, label %24, label %44

24:                                               ; preds = %19, %14
  %25 = load ptr, ptr %4, align 8, !tbaa !65
  %26 = getelementptr inbounds nuw %struct._timelib_time, ptr %25, i32 0, i32 7
  %27 = load i32, ptr %26, align 8, !tbaa !107
  %28 = load ptr, ptr %4, align 8, !tbaa !65
  %29 = getelementptr inbounds nuw %struct._timelib_time, ptr %28, i32 0, i32 10
  %30 = load i32, ptr %29, align 8, !tbaa !108
  %31 = mul i32 %30, 3600
  %32 = add i32 %27, %31
  %33 = load ptr, ptr %5, align 8, !tbaa !65
  %34 = getelementptr inbounds nuw %struct._timelib_time, ptr %33, i32 0, i32 7
  %35 = load i32, ptr %34, align 8, !tbaa !107
  %36 = load ptr, ptr %5, align 8, !tbaa !65
  %37 = getelementptr inbounds nuw %struct._timelib_time, ptr %36, i32 0, i32 10
  %38 = load i32, ptr %37, align 8, !tbaa !108
  %39 = mul i32 %38, 3600
  %40 = add i32 %35, %39
  %41 = icmp eq i32 %32, %40
  br i1 %41, label %42, label %43

42:                                               ; preds = %24
  store i32 1, ptr %3, align 4
  br label %64

43:                                               ; preds = %24
  store i32 0, ptr %3, align 4
  br label %64

44:                                               ; preds = %19
  %45 = load ptr, ptr %4, align 8, !tbaa !65
  %46 = getelementptr inbounds nuw %struct._timelib_time, ptr %45, i32 0, i32 21
  %47 = load i32, ptr %46, align 8, !tbaa !106
  %48 = icmp eq i32 %47, 3
  br i1 %48, label %49, label %63

49:                                               ; preds = %44
  %50 = load ptr, ptr %4, align 8, !tbaa !65
  %51 = getelementptr inbounds nuw %struct._timelib_time, ptr %50, i32 0, i32 9
  %52 = load ptr, ptr %51, align 8, !tbaa !110
  %53 = getelementptr inbounds nuw %struct._timelib_tzinfo, ptr %52, i32 0, i32 0
  %54 = load ptr, ptr %53, align 8, !tbaa !90
  %55 = load ptr, ptr %5, align 8, !tbaa !65
  %56 = getelementptr inbounds nuw %struct._timelib_time, ptr %55, i32 0, i32 9
  %57 = load ptr, ptr %56, align 8, !tbaa !110
  %58 = getelementptr inbounds nuw %struct._timelib_tzinfo, ptr %57, i32 0, i32 0
  %59 = load ptr, ptr %58, align 8, !tbaa !90
  %60 = call i32 @strcmp(ptr noundef %54, ptr noundef %59) #12
  %61 = icmp eq i32 %60, 0
  br i1 %61, label %62, label %63

62:                                               ; preds = %49
  store i32 1, ptr %3, align 4
  br label %64

63:                                               ; preds = %49, %44
  store i32 0, ptr %3, align 4
  br label %64

64:                                               ; preds = %63, %62, %43, %42, %13
  %65 = load i32, ptr %3, align 4
  ret i32 %65
}