; Function Attrs: mustprogress nofree nounwind willreturn memory(read, inaccessiblemem: none) uwtable
define hidden range(i32 0, 2) i32 @timelib_same_timezone(ptr noundef readonly captures(none) %0, ptr noundef readonly captures(none) %1) local_unnamed_addr #9 {
  %3 = getelementptr inbounds nuw i8, ptr %0, i64 232
  %4 = load i32, ptr %3, align 8, !tbaa !90
  %5 = getelementptr inbounds nuw i8, ptr %1, i64 232
  %6 = load i32, ptr %5, align 8, !tbaa !90
  %.not = icmp eq i32 %4, %6
  br i1 %.not, label %7, label %32

7:                                                ; preds = %2
  switch i32 %4, label %31 [
    i32 2, label %8
    i32 1, label %8
    i32 3, label %22
  ]

8:                                                ; preds = %7, %7
  %9 = getelementptr inbounds nuw i8, ptr %0, i64 56
  %10 = load i32, ptr %9, align 8, !tbaa !91
  %11 = getelementptr inbounds nuw i8, ptr %0, i64 80
  %12 = load i32, ptr %11, align 8, !tbaa !92
  %13 = mul i32 %12, 3600
  %14 = add i32 %13, %10
  %15 = getelementptr inbounds nuw i8, ptr %1, i64 56
  %16 = load i32, ptr %15, align 8, !tbaa !91
  %17 = getelementptr inbounds nuw i8, ptr %1, i64 80
  %18 = load i32, ptr %17, align 8, !tbaa !92
  %19 = mul i32 %18, 3600
  %20 = add i32 %19, %16
  %21 = icmp eq i32 %14, %20
  %. = zext i1 %21 to i32
  br label %32

22:                                               ; preds = %7
  %23 = getelementptr inbounds nuw i8, ptr %0, i64 72
  %24 = load ptr, ptr %23, align 8, !tbaa !94
  %25 = load ptr, ptr %24, align 8, !tbaa !79
  %26 = getelementptr inbounds nuw i8, ptr %1, i64 72
  %27 = load ptr, ptr %26, align 8, !tbaa !94
  %28 = load ptr, ptr %27, align 8, !tbaa !79
  %29 = tail call i32 @strcmp(ptr noundef nonnull dereferenceable(1) %25, ptr noundef nonnull dereferenceable(1) %28) #19
  %30 = icmp eq i32 %29, 0
  br i1 %30, label %32, label %31

31:                                               ; preds = %7, %22
  br label %32

32:                                               ; preds = %22, %8, %2, %31
  %.0 = phi i32 [ 0, %31 ], [ 0, %2 ], [ %., %8 ], [ 1, %22 ]
  ret i32 %.0
}